; Function Attrs: mustprogress nofree norecurse nosync nounwind willreturn memory(argmem: read) uwtable
define i64 @_ZNK10open_spiel10battleship14BattleshipGame21DeserializeShotActionEl(ptr noundef nonnull readonly align 8 captures(none) dereferenceable(328) %0, i64 noundef %1) local_unnamed_addr #11 align 2 {
  %3 = getelementptr inbounds nuw i8, ptr %0, i64 280
  %4 = load i32, ptr %3, align 8
  %5 = sext i32 %4 to i64
  %6 = sdiv i64 %1, %5
  %7 = srem i64 %1, %5
  %.sroa.2.0.insert.ext = shl nsw i64 %7, 32
  %.sroa.0.0.insert.ext = and i64 %6, 4294967295
  %.sroa.0.0.insert.insert = or disjoint i64 %.sroa.2.0.insert.ext, %.sroa.0.0.insert.ext
  ret i64 %.sroa.0.0.insert.insert
}